; Function Attrs: null_pointer_is_valid sspstrong uwtable
define ptr @proto_find_finfo(ptr noundef %0, i32 noundef %1) local_unnamed_addr #0 {
  %3 = alloca %struct.ffdata_t, align 8
  call void @llvm.lifetime.start.p0(i64 16, ptr nonnull %3) #39
  %4 = tail call ptr @g_ptr_array_new()
  store ptr %4, ptr %3, align 8
  %5 = getelementptr inbounds nuw i8, ptr %3, i64 8
  store i32 %1, ptr %5, align 8
  %6 = call fastcc zeroext i1 @proto_tree_traverse_pre_order(ptr noundef %0, ptr noundef nonnull @find_finfo, ptr noundef nonnull %3)
  %7 = load ptr, ptr %3, align 8
  call void @llvm.lifetime.end.p0(i64 16, ptr nonnull %3) #39
  ret ptr %7
}